target datalayout = "e-m:e-p270:32:32-p271:32:32-p272:64:64-i64:64-i128:128-f80:128-n8:16:32:64-S128"
target triple = "x86_64-pc-linux-gnu"

; Function Attrs: nounwind uwtable
define void @Abc_MergeSortCostMerge(ptr noundef %0, ptr noundef %1, ptr noundef %2, ptr noundef %3, ptr noundef %4) #0 {
  %6 = alloca ptr, align 8
  %7 = alloca ptr, align 8
  %8 = alloca ptr, align 8
  %9 = alloca ptr, align 8
  %10 = alloca ptr, align 8
  %11 = alloca i32, align 4
  %12 = alloca ptr, align 8
  store ptr %0, ptr %6, align 8
  store ptr %1, ptr %7, align 8
  store ptr %2, ptr %8, align 8
  store ptr %3, ptr %9, align 8
  store ptr %4, ptr %10, align 8
  %13 = load ptr, ptr %7, align 8
  %14 = load ptr, ptr %6, align 8
  %15 = ptrtoint ptr %13 to i64
  %16 = ptrtoint ptr %14 to i64
  %17 = sub i64 %15, %16
  %18 = sdiv exact i64 %17, 4
  %19 = load ptr, ptr %9, align 8
  %20 = load ptr, ptr %8, align 8
  %21 = ptrtoint ptr %19 to i64
  %22 = ptrtoint ptr %20 to i64
  %23 = sub i64 %21, %22
  %24 = sdiv exact i64 %23, 4
  %25 = add nsw i64 %18, %24
  %26 = trunc i64 %25 to i32
  store i32 %26, ptr %11, align 4
  %27 = load ptr, ptr %10, align 8
  store ptr %27, ptr %12, align 8
  br label %28

28:                                               ; preds = %98, %5
  %29 = load ptr, ptr %6, align 8
  %30 = load ptr, ptr %7, align 8
  %31 = icmp ult ptr %29, %30
  br i1 %31, label %32, label %36

32:                                               ; preds = %28
  %33 = load ptr, ptr %8, align 8
  %34 = load ptr, ptr %9, align 8
  %35 = icmp ult ptr %33, %34
  br label %36

36:                                               ; preds = %32, %28
  %37 = phi i1 [ false, %28 ], [ %35, %32 ]
  br i1 %37, label %38, label %99

38:                                               ; preds = %36
  %39 = load ptr, ptr %6, align 8
  %40 = getelementptr inbounds i32, ptr %39, i64 1
  %41 = load i32, ptr %40, align 4
  %42 = load ptr, ptr %8, align 8
  %43 = getelementptr inbounds i32, ptr %42, i64 1
  %44 = load i32, ptr %43, align 4
  %45 = icmp eq i32 %41, %44
  br i1 %45, label %46, label %67

46:                                               ; preds = %38
  %47 = load ptr, ptr %6, align 8
  %48 = getelementptr inbounds i32, ptr %47, i32 1
  store ptr %48, ptr %6, align 8
  %49 = load i32, ptr %47, align 4
  %50 = load ptr, ptr %10, align 8
  %51 = getelementptr inbounds i32, ptr %50, i32 1
  store ptr %51, ptr %10, align 8
  store i32 %49, ptr %50, align 4
  %52 = load ptr, ptr %6, align 8
  %53 = getelementptr inbounds i32, ptr %52, i32 1
  store ptr %53, ptr %6, align 8
  %54 = load i32, ptr %52, align 4
  %55 = load ptr, ptr %10, align 8
  %56 = getelementptr inbounds i32, ptr %55, i32 1
  store ptr %56, ptr %10, align 8
  store i32 %54, ptr %55, align 4
  %57 = load ptr, ptr %8, align 8
  %58 = getelementptr inbounds i32, ptr %57, i32 1
  store ptr %58, ptr %8, align 8
  %59 = load i32, ptr %57, align 4
  %60 = load ptr, ptr %10, align 8
  %61 = getelementptr inbounds i32, ptr %60, i32 1
  store ptr %61, ptr %10, align 8
  store i32 %59, ptr %60, align 4
  %62 = load ptr, ptr %8, align 8
  %63 = getelementptr inbounds i32, ptr %62, i32 1
  store ptr %63, ptr %8, align 8
  %64 = load i32, ptr %62, align 4
  %65 = load ptr, ptr %10, align 8
  %66 = getelementptr inbounds i32, ptr %65, i32 1
  store ptr %66, ptr %10, align 8
  store i32 %64, ptr %65, align 4
  br label %98

67:                                               ; preds = %38
  %68 = load ptr, ptr %6, align 8
  %69 = getelementptr inbounds i32, ptr %68, i64 1
  %70 = load i32, ptr %69, align 4
  %71 = load ptr, ptr %8, align 8
  %72 = getelementptr inbounds i32, ptr %71, i64 1
  %73 = load i32, ptr %72, align 4
  %74 = icmp slt i32 %70, %73
  br i1 %74, label %75, label %86

75:                                               ; preds = %67
  %76 = load ptr, ptr %6, align 8
  %77 = getelementptr inbounds i32, ptr %76, i32 1
  store ptr %77, ptr %6, align 8
  %78 = load i32, ptr %76, align 4
  %79 = load ptr, ptr %10, align 8
  %80 = getelementptr inbounds i32, ptr %79, i32 1
  store ptr %80, ptr %10, align 8
  store i32 %78, ptr %79, align 4
  %81 = load ptr, ptr %6, align 8
  %82 = getelementptr inbounds i32, ptr %81, i32 1
  store ptr %82, ptr %6, align 8
  %83 = load i32, ptr %81, align 4
  %84 = load ptr, ptr %10, align 8
  %85 = getelementptr inbounds i32, ptr %84, i32 1
  store ptr %85, ptr %10, align 8
  store i32 %83, ptr %84, align 4
  br label %97

86:                                               ; preds = %67
  %87 = load ptr, ptr %8, align 8
  %88 = getelementptr inbounds i32, ptr %87, i32 1
  store ptr %88, ptr %8, align 8
  %89 = load i32, ptr %87, align 4
  %90 = load ptr, ptr %10, align 8
  %91 = getelementptr inbounds i32, ptr %90, i32 1
  store ptr %91, ptr %10, align 8
  store i32 %89, ptr %90, align 4
  %92 = load ptr, ptr %8, align 8
  %93 = getelementptr inbounds i32, ptr %92, i32 1
  store ptr %93, ptr %8, align 8
  %94 = load i32, ptr %92, align 4
  %95 = load ptr, ptr %10, align 8
  %96 = getelementptr inbounds i32, ptr %95, i32 1
  store ptr %96, ptr %10, align 8
  store i32 %94, ptr %95, align 4
  br label %97

97:                                               ; preds = %86, %75
  br label %98

98:                                               ; preds = %97, %46
  br label %28, !llvm.loop !20

99:                                               ; preds = %36
  br label %100

100:                                              ; preds = %104, %99
  %101 = load ptr, ptr %6, align 8
  %102 = load ptr, ptr %7, align 8
  %103 = icmp ult ptr %101, %102
  br i1 %103, label %104, label %115

104:                                              ; preds = %100
  %105 = load ptr, ptr %6, align 8
  %106 = getelementptr inbounds i32, ptr %105, i32 1
  store ptr %106, ptr %6, align 8
  %107 = load i32, ptr %105, align 4
  %108 = load ptr, ptr %10, align 8
  %109 = getelementptr inbounds i32, ptr %108, i32 1
  store ptr %109, ptr %10, align 8
  store i32 %107, ptr %108, align 4
  %110 = load ptr, ptr %6, align 8
  %111 = getelementptr inbounds i32, ptr %110, i32 1
  store ptr %111, ptr %6, align 8
  %112 = load i32, ptr %110, align 4
  %113 = load ptr, ptr %10, align 8
  %114 = getelementptr inbounds i32, ptr %113, i32 1
  store ptr %114, ptr %10, align 8
  store i32 %112, ptr %113, align 4
  br label %100, !llvm.loop !21

115:                                              ; preds = %100
  br label %116

116:                                              ; preds = %120, %115
  %117 = load ptr, ptr %8, align 8
  %118 = load ptr, ptr %9, align 8
  %119 = icmp ult ptr %117, %118
  br i1 %119, label %120, label %131

120:                                              ; preds = %116
  %121 = load ptr, ptr %8, align 8
  %122 = getelementptr inbounds i32, ptr %121, i32 1
  store ptr %122, ptr %8, align 8
  %123 = load i32, ptr %121, align 4
  %124 = load ptr, ptr %10, align 8
  %125 = getelementptr inbounds i32, ptr %124, i32 1
  store ptr %125, ptr %10, align 8
  store i32 %123, ptr %124, align 4
  %126 = load ptr, ptr %8, align 8
  %127 = getelementptr inbounds i32, ptr %126, i32 1
  store ptr %127, ptr %8, align 8
  %128 = load i32, ptr %126, align 4
  %129 = load ptr, ptr %10, align 8
  %130 = getelementptr inbounds i32, ptr %129, i32 1
  store ptr %130, ptr %10, align 8
  store i32 %128, ptr %129, align 4
  br label %116, !llvm.loop !22

131:                                              ; preds = %116
  ret void
}