; Function Attrs: nofree norecurse nosync nounwind memory(argmem: readwrite) uwtable
define void @Abc_MergeSortCostMerge(ptr noundef readonly %0, ptr noundef readnone %1, ptr noundef readonly %2, ptr noundef readnone %3, ptr noundef writeonly captures(none) %4) local_unnamed_addr #0 {
  %6 = icmp ult ptr %0, %1
  %7 = icmp ult ptr %2, %3
  %8 = and i1 %6, %7
  br i1 %8, label %.lr.ph, label %.preheader49

.preheader49:                                     ; preds = %37, %5
  %.044.lcssa = phi ptr [ %4, %5 ], [ %.145, %37 ]
  %.041.lcssa = phi ptr [ %2, %5 ], [ %.142, %37 ]
  %.0.lcssa = phi ptr [ %0, %5 ], [ %.1, %37 ]
  %9 = icmp ult ptr %.0.lcssa, %1
  br i1 %9, label %.lr.ph57, label %.preheader

.lr.ph:                                           ; preds = %5, %37
  %.052 = phi ptr [ %.1, %37 ], [ %0, %5 ]
  %.04151 = phi ptr [ %.142, %37 ], [ %2, %5 ]
  %.04450 = phi ptr [ %.145, %37 ], [ %4, %5 ]
  %10 = getelementptr inbounds nuw i8, ptr %.052, i64 4
  %11 = load i32, ptr %10, align 4
  %12 = getelementptr inbounds nuw i8, ptr %.04151, i64 4
  %13 = load i32, ptr %12, align 4
  %14 = icmp eq i32 %11, %13
  %15 = getelementptr inbounds nuw i8, ptr %.04450, i64 4
  br i1 %14, label %16, label %26

16:                                               ; preds = %.lr.ph
  %17 = load i32, ptr %.052, align 4
  store i32 %17, ptr %.04450, align 4
  %18 = getelementptr inbounds nuw i8, ptr %.052, i64 8
  %19 = load i32, ptr %10, align 4
  %20 = getelementptr inbounds nuw i8, ptr %.04450, i64 8
  store i32 %19, ptr %15, align 4
  %21 = load i32, ptr %.04151, align 4
  %22 = getelementptr inbounds nuw i8, ptr %.04450, i64 12
  store i32 %21, ptr %20, align 4
  %23 = getelementptr inbounds nuw i8, ptr %.04151, i64 8
  %24 = load i32, ptr %12, align 4
  %25 = getelementptr inbounds nuw i8, ptr %.04450, i64 16
  store i32 %24, ptr %22, align 4
  br label %37

26:                                               ; preds = %.lr.ph
  %27 = icmp slt i32 %11, %13
  %28 = getelementptr inbounds nuw i8, ptr %.04450, i64 8
  br i1 %27, label %29, label %33

29:                                               ; preds = %26
  %30 = load i32, ptr %.052, align 4
  store i32 %30, ptr %.04450, align 4
  %31 = getelementptr inbounds nuw i8, ptr %.052, i64 8
  %32 = load i32, ptr %10, align 4
  store i32 %32, ptr %15, align 4
  br label %37

33:                                               ; preds = %26
  %34 = load i32, ptr %.04151, align 4
  store i32 %34, ptr %.04450, align 4
  %35 = getelementptr inbounds nuw i8, ptr %.04151, i64 8
  %36 = load i32, ptr %12, align 4
  store i32 %36, ptr %15, align 4
  br label %37

37:                                               ; preds = %29, %33, %16
  %.145 = phi ptr [ %25, %16 ], [ %28, %29 ], [ %28, %33 ]
  %.142 = phi ptr [ %23, %16 ], [ %.04151, %29 ], [ %35, %33 ]
  %.1 = phi ptr [ %18, %16 ], [ %31, %29 ], [ %.052, %33 ]
  %38 = icmp ult ptr %.1, %1
  %39 = icmp ult ptr %.142, %3
  %40 = select i1 %38, i1 %39, i1 false
  br i1 %40, label %.lr.ph, label %.preheader49, !llvm.loop !20

.preheader:                                       ; preds = %.lr.ph57, %.preheader49
  %.246.lcssa = phi ptr [ %.044.lcssa, %.preheader49 ], [ %47, %.lr.ph57 ]
  %41 = icmp ult ptr %.041.lcssa, %3
  br i1 %41, label %.lr.ph61, label %._crit_edge

.lr.ph57:                                         ; preds = %.preheader49, %.lr.ph57
  %.256 = phi ptr [ %45, %.lr.ph57 ], [ %.0.lcssa, %.preheader49 ]
  %.24655 = phi ptr [ %47, %.lr.ph57 ], [ %.044.lcssa, %.preheader49 ]
  %42 = getelementptr inbounds nuw i8, ptr %.256, i64 4
  %43 = load i32, ptr %.256, align 4
  %44 = getelementptr inbounds nuw i8, ptr %.24655, i64 4
  store i32 %43, ptr %.24655, align 4
  %45 = getelementptr inbounds nuw i8, ptr %.256, i64 8
  %46 = load i32, ptr %42, align 4
  %47 = getelementptr inbounds nuw i8, ptr %.24655, i64 8
  store i32 %46, ptr %44, align 4
  %48 = icmp ult ptr %45, %1
  br i1 %48, label %.lr.ph57, label %.preheader, !llvm.loop !21

.lr.ph61:                                         ; preds = %.preheader, %.lr.ph61
  %.24360 = phi ptr [ %52, %.lr.ph61 ], [ %.041.lcssa, %.preheader ]
  %.359 = phi ptr [ %54, %.lr.ph61 ], [ %.246.lcssa, %.preheader ]
  %49 = getelementptr inbounds nuw i8, ptr %.24360, i64 4
  %50 = load i32, ptr %.24360, align 4
  %51 = getelementptr inbounds nuw i8, ptr %.359, i64 4
  store i32 %50, ptr %.359, align 4
  %52 = getelementptr inbounds nuw i8, ptr %.24360, i64 8
  %53 = load i32, ptr %49, align 4
  %54 = getelementptr inbounds nuw i8, ptr %.359, i64 8
  store i32 %53, ptr %51, align 4
  %55 = icmp ult ptr %52, %3
  br i1 %55, label %.lr.ph61, label %._crit_edge, !llvm.loop !22

._crit_edge:                                      ; preds = %.lr.ph61, %.preheader
  ret void
}